target datalayout = "e-m:e-p270:32:32-p271:32:32-p272:64:64-i64:64-i128:128-f80:128-n8:16:32:64-S128"
target triple = "x86_64-pc-linux-gnu"

; Function Attrs: nounwind uwtable
define dso_local i64 @aofWrite(i32 noundef %0, ptr noundef %1, i64 noundef %2) #0 {
  %4 = alloca i64, align 8
  %5 = alloca i32, align 4
  %6 = alloca ptr, align 8
  %7 = alloca i64, align 8
  %8 = alloca i64, align 8
  %9 = alloca i64, align 8
  %10 = alloca i32, align 4
  store i32 %0, ptr %5, align 4, !tbaa !22
  store ptr %1, ptr %6, align 8, !tbaa !18
  store i64 %2, ptr %7, align 8, !tbaa !23
  call void @llvm.lifetime.start.p0(i64 8, ptr %8) #12
  store i64 0, ptr %8, align 8, !tbaa !23
  call void @llvm.lifetime.start.p0(i64 8, ptr %9) #12
  store i64 0, ptr %9, align 8, !tbaa !23
  br label %11

11:                                               ; preds = %34, %25, %3
  %12 = load i64, ptr %7, align 8, !tbaa !23
  %13 = icmp ne i64 %12, 0
  br i1 %13, label %14, label %44

14:                                               ; preds = %11
  %15 = load i32, ptr %5, align 4, !tbaa !22
  %16 = load ptr, ptr %6, align 8, !tbaa !18
  %17 = load i64, ptr %7, align 8, !tbaa !23
  %18 = call i64 @write(i32 noundef %15, ptr noundef %16, i64 noundef %17)
  store i64 %18, ptr %8, align 8, !tbaa !23
  %19 = load i64, ptr %8, align 8, !tbaa !23
  %20 = icmp slt i64 %19, 0
  br i1 %20, label %21, label %34

21:                                               ; preds = %14
  %22 = call ptr @__errno_location() #15
  %23 = load i32, ptr %22, align 4, !tbaa !22
  %24 = icmp eq i32 %23, 4
  br i1 %24, label %25, label %26

25:                                               ; preds = %21
  br label %11, !llvm.loop !121

26:                                               ; preds = %21
  %27 = load i64, ptr %9, align 8, !tbaa !23
  %28 = icmp ne i64 %27, 0
  br i1 %28, label %29, label %31

29:                                               ; preds = %26
  %30 = load i64, ptr %9, align 8, !tbaa !23
  br label %32

31:                                               ; preds = %26
  br label %32

32:                                               ; preds = %31, %29
  %33 = phi i64 [ %30, %29 ], [ -1, %31 ]
  store i64 %33, ptr %4, align 8
  store i32 1, ptr %10, align 4
  br label %46

34:                                               ; preds = %14
  %35 = load i64, ptr %8, align 8, !tbaa !23
  %36 = load i64, ptr %7, align 8, !tbaa !23
  %37 = sub i64 %36, %35
  store i64 %37, ptr %7, align 8, !tbaa !23
  %38 = load i64, ptr %8, align 8, !tbaa !23
  %39 = load ptr, ptr %6, align 8, !tbaa !18
  %40 = getelementptr inbounds i8, ptr %39, i64 %38
  store ptr %40, ptr %6, align 8, !tbaa !18
  %41 = load i64, ptr %8, align 8, !tbaa !23
  %42 = load i64, ptr %9, align 8, !tbaa !23
  %43 = add nsw i64 %42, %41
  store i64 %43, ptr %9, align 8, !tbaa !23
  br label %11, !llvm.loop !121

44:                                               ; preds = %11
  %45 = load i64, ptr %9, align 8, !tbaa !23
  store i64 %45, ptr %4, align 8
  store i32 1, ptr %10, align 4
  br label %46

46:                                               ; preds = %44, %32
  call void @llvm.lifetime.end.p0(i64 8, ptr %9) #12
  call void @llvm.lifetime.end.p0(i64 8, ptr %8) #12
  %47 = load i64, ptr %4, align 8
  ret i64 %47
}