; Function Attrs: nofree nounwind uwtable
define dso_local range(i64 -1, -9223372036854775808) i64 @aofWrite(i32 noundef %0, ptr noundef readonly captures(none) %1, i64 noundef %2) local_unnamed_addr #12 {
  %.not21 = icmp eq i64 %2, 0
  br i1 %.not21, label %.loopexit, label %.outer.split

.outer.split:                                     ; preds = %3, %.outer
  %.0.ph24 = phi i64 [ %15, %.outer ], [ 0, %3 ]
  %.014.ph23 = phi i64 [ %13, %.outer ], [ %2, %3 ]
  %.015.ph22 = phi ptr [ %14, %.outer ], [ %1, %3 ]
  br label %4

4:                                                ; preds = %.outer.split, %7
  %5 = tail call i64 @write(i32 noundef %0, ptr noundef %.015.ph22, i64 noundef %.014.ph23) #20
  %6 = icmp slt i64 %5, 0
  br i1 %6, label %7, label %.outer

7:                                                ; preds = %4
  %8 = tail call ptr @__errno_location() #22
  %9 = load i32, ptr %8, align 4, !tbaa !21
  %10 = icmp eq i32 %9, 4
  br i1 %10, label %4, label %11, !llvm.loop !105

11:                                               ; preds = %7
  %.not18 = icmp eq i64 %.0.ph24, 0
  %12 = select i1 %.not18, i64 -1, i64 %.0.ph24
  br label %.loopexit

.outer:                                           ; preds = %4
  %13 = sub i64 %.014.ph23, %5
  %14 = getelementptr inbounds nuw i8, ptr %.015.ph22, i64 %5
  %15 = add nuw nsw i64 %5, %.0.ph24
  %.not = icmp eq i64 %13, 0
  br i1 %.not, label %.loopexit, label %.outer.split, !llvm.loop !105

.loopexit:                                        ; preds = %.outer, %3, %11
  %.016 = phi i64 [ %12, %11 ], [ 0, %3 ], [ %15, %.outer ]
  ret i64 %.016
}